target datalayout = "e-m:e-p270:32:32-p271:32:32-p272:64:64-i64:64-i128:128-f80:128-n8:16:32:64-S128"
target triple = "x86_64-pc-linux-gnu"

%struct.SDL_Rect = type { i32, i32, i32, i32 }
%struct.SDL_VideoData = type { ptr, ptr, i32, ptr, i64, i32, ptr, i32, i64, i64, %struct.X11_ClipboardData, %struct.X11_ClipboardData, ptr, i64, %struct.X11_SettingsData, i8, %struct.anon.1, [256 x i32], i8, i8, i8, i64, i8, %struct.SDL_Point, i32, ptr, i32, i8, i32, %struct.anon.2, i8, i64, ptr, ptr, i8, i8, i8 }
%struct.X11_ClipboardData = type { ptr, ptr, ptr, i64, i32 }
%struct.X11_SettingsData = type { ptr }
%struct.anon.1 = type { i64, i64, i64, i64, i64, i64, i64, i64, i64, i64, i64, i64, i64, i64, i64, i64, i64, i64, i64, i64, i64, i64, i64, i64, i64, i64, i64, i64, i64, i64, i64, i64, i64, i64, i64, i64, i64, i64, i64, i64, i64, i64, i64, i64, i64, i64, i64, i64, i64, i64, i64, i64, i64 }
%struct.SDL_Point = type { i32, i32 }
%struct.anon.2 = type { ptr, i32, i32, i32, i16, i32, i32 }
%struct.SDL_Window = type { i32, ptr, ptr, i32, i32, i32, i32, i32, i32, i32, i32, float, float, i32, i32, i64, i64, float, i8, i8, i32, i32, %struct.SDL_Rect, %struct.SDL_Rect, %struct.SDL_Rect, i8, i8, i8, %struct.SDL_DisplayMode, %struct.SDL_DisplayMode, %struct.SDL_HDROutputProperties, float, ptr, i8, i8, i8, i8, i8, i8, i8, i8, i8, i32, i32, i32, i32, %struct.SDL_Rect, i32, i8, %struct.SDL_Rect, i32, %struct.SDL_Rect, ptr, ptr, i32, float, i32, i32, ptr, ptr, ptr, ptr, ptr, ptr, ptr, ptr, ptr }
%struct.SDL_DisplayMode = type { i32, i32, i32, i32, float, float, i32, i32, ptr }
%struct.SDL_HDROutputProperties = type { float, float }
%struct.SDL_WindowData = type { ptr, i64, ptr, i64, i8, %struct.XShmSegmentInfo, ptr, ptr, ptr, i8, i32, i32, i32, i32, i8, i8, i8, i64, i32, i64, i8, %struct.SDL_Point, %struct.XConfigureEvent, %struct.XConfigureEvent, ptr, i64, i64, i64, i8, i64, ptr, i8, [4 x i64], %struct.SDL_Rect, i64, %struct._XSyncValue, i8, %struct.SDL_Rect, %struct.SDL_DisplayMode, i32, i32, i8, i8, i8, i8, i8, i8, i8, i8, i32, %struct.XPoint, ptr, ptr, i32, i32, i8 }
%struct.XShmSegmentInfo = type { i64, i32, ptr, i32 }
%struct.XConfigureEvent = type { i32, i64, i32, ptr, i64, i64, i32, i32, i32, i32, i32, i64, i32 }
%struct._XSyncValue = type { i32, i32 }
%struct.XPoint = type { i16, i16 }

@X11_XSync = external global ptr, align 8
@X11_XRaiseWindow = external global ptr, align 8
@.str.32 = private unnamed_addr constant [20 x i8] c"Invalid window data\00", align 1
@X11_XUngrabPointer = external global ptr, align 8
@X11_XGrabPointer = external global ptr, align 8
@.str.33 = private unnamed_addr constant [80 x i8] c"The X server refused to let us grab the mouse. You might experience input bugs.\00", align 1

; Function Attrs: nounwind uwtable
define hidden zeroext i1 @X11_SetWindowMouseGrab(ptr noundef %0, ptr noundef %1, i1 noundef zeroext %2) #0 {
  %4 = alloca i1, align 1
  %5 = alloca ptr, align 8
  %6 = alloca ptr, align 8
  %7 = alloca i8, align 1
  %8 = alloca ptr, align 8
  %9 = alloca ptr, align 8
  %10 = alloca i32, align 4
  %11 = alloca i32, align 4
  %12 = alloca i32, align 4
  %13 = alloca i32, align 4
  store ptr %0, ptr %5, align 8
  store ptr %1, ptr %6, align 8
  %14 = zext i1 %2 to i8
  store i8 %14, ptr %7, align 1
  call void @llvm.lifetime.start.p0(i64 8, ptr %8) #7
  %15 = load ptr, ptr %6, align 8
  %16 = getelementptr inbounds nuw %struct.SDL_Window, ptr %15, i32 0, i32 59
  %17 = load ptr, ptr %16, align 8
  store ptr %17, ptr %8, align 8
  call void @llvm.lifetime.start.p0(i64 8, ptr %9) #7
  %18 = load ptr, ptr %8, align 8
  %19 = icmp ne ptr %18, null
  br i1 %19, label %22, label %20

20:                                               ; preds = %3
  %21 = call zeroext i1 (ptr, ...) @SDL_SetError_REAL(ptr noundef @.str.32)
  store i1 %21, ptr %4, align 1
  store i32 1, ptr %10, align 4
  br label %118

22:                                               ; preds = %3
  %23 = load ptr, ptr %8, align 8
  %24 = getelementptr inbounds nuw %struct.SDL_WindowData, ptr %23, i32 0, i32 16
  store i8 0, ptr %24, align 2
  %25 = load ptr, ptr %8, align 8
  %26 = getelementptr inbounds nuw %struct.SDL_WindowData, ptr %25, i32 0, i32 24
  %27 = load ptr, ptr %26, align 8
  %28 = getelementptr inbounds nuw %struct.SDL_VideoData, ptr %27, i32 0, i32 0
  %29 = load ptr, ptr %28, align 8
  store ptr %29, ptr %9, align 8
  %30 = load i8, ptr %7, align 1, !range !5, !noundef !6
  %31 = trunc i8 %30 to i1
  br i1 %31, label %32, label %99

32:                                               ; preds = %22
  %33 = load ptr, ptr %6, align 8
  %34 = getelementptr inbounds nuw %struct.SDL_Window, ptr %33, i32 0, i32 15
  %35 = load i64, ptr %34, align 8
  %36 = and i64 %35, 8
  %37 = icmp ne i64 %36, 0
  br i1 %37, label %38, label %39

38:                                               ; preds = %32
  store i1 true, ptr %4, align 1
  store i32 1, ptr %10, align 4
  br label %118

39:                                               ; preds = %32
  %40 = load ptr, ptr %8, align 8
  %41 = getelementptr inbounds nuw %struct.SDL_WindowData, ptr %40, i32 0, i32 14
  %42 = load i8, ptr %41, align 4, !range !5, !noundef !6
  %43 = trunc i8 %42 to i1
  br i1 %43, label %44, label %51

44:                                               ; preds = %39
  %45 = call i32 @SDL_GetMouseState_REAL(ptr noundef null, ptr noundef null)
  %46 = icmp ne i32 %45, 0
  br i1 %46, label %47, label %51

47:                                               ; preds = %44
  %48 = load ptr, ptr @X11_XUngrabPointer, align 8
  %49 = load ptr, ptr %9, align 8
  %50 = call i32 %48(ptr noundef %49, i64 noundef 0)
  br label %51

51:                                               ; preds = %47, %44, %39
  %52 = load ptr, ptr %8, align 8
  %53 = getelementptr inbounds nuw %struct.SDL_WindowData, ptr %52, i32 0, i32 24
  %54 = load ptr, ptr %53, align 8
  %55 = getelementptr inbounds nuw %struct.SDL_VideoData, ptr %54, i32 0, i32 20
  %56 = load i8, ptr %55, align 2, !range !5, !noundef !6
  %57 = trunc i8 %56 to i1
  br i1 %57, label %90, label %58

58:                                               ; preds = %51
  call void @llvm.lifetime.start.p0(i64 4, ptr %11) #7
  store i32 2097228, ptr %11, align 4
  call void @llvm.lifetime.start.p0(i64 4, ptr %12) #7
  call void @llvm.lifetime.start.p0(i64 4, ptr %13) #7
  store i32 0, ptr %13, align 4
  store i32 0, ptr %12, align 4
  br label %59

59:                                               ; preds = %78, %58
  %60 = load i32, ptr %12, align 4
  %61 = icmp slt i32 %60, 100
  br i1 %61, label %62, label %81

62:                                               ; preds = %59
  %63 = load ptr, ptr @X11_XGrabPointer, align 8
  %64 = load ptr, ptr %9, align 8
  %65 = load ptr, ptr %8, align 8
  %66 = getelementptr inbounds nuw %struct.SDL_WindowData, ptr %65, i32 0, i32 1
  %67 = load i64, ptr %66, align 8
  %68 = load ptr, ptr %8, align 8
  %69 = getelementptr inbounds nuw %struct.SDL_WindowData, ptr %68, i32 0, i32 1
  %70 = load i64, ptr %69, align 8
  %71 = call i32 %63(ptr noundef %64, i64 noundef %67, i32 noundef 0, i32 noundef 2097228, i32 noundef 1, i32 noundef 1, i64 noundef %70, i64 noundef 0, i64 noundef 0)
  store i32 %71, ptr %13, align 4
  %72 = load i32, ptr %13, align 4
  %73 = icmp eq i32 %72, 0
  br i1 %73, label %74, label %77

74:                                               ; preds = %62
  %75 = load ptr, ptr %8, align 8
  %76 = getelementptr inbounds nuw %struct.SDL_WindowData, ptr %75, i32 0, i32 16
  store i8 1, ptr %76, align 2
  br label %81

77:                                               ; preds = %62
  call void @SDL_Delay_REAL(i32 noundef 50)
  br label %78

78:                                               ; preds = %77
  %79 = load i32, ptr %12, align 4
  %80 = add nsw i32 %79, 1
  store i32 %80, ptr %12, align 4
  br label %59, !llvm.loop !18

81:                                               ; preds = %74, %59
  %82 = load i32, ptr %13, align 4
  %83 = icmp ne i32 %82, 0
  br i1 %83, label %84, label %89

84:                                               ; preds = %81
  %85 = load ptr, ptr %8, align 8
  %86 = getelementptr inbounds nuw %struct.SDL_WindowData, ptr %85, i32 0, i32 24
  %87 = load ptr, ptr %86, align 8
  %88 = getelementptr inbounds nuw %struct.SDL_VideoData, ptr %87, i32 0, i32 20
  store i8 1, ptr %88, align 2
  br label %89

89:                                               ; preds = %84, %81
  call void @llvm.lifetime.end.p0(i64 4, ptr %13) #7
  call void @llvm.lifetime.end.p0(i64 4, ptr %12) #7
  call void @llvm.lifetime.end.p0(i64 4, ptr %11) #7
  br label %90

90:                                               ; preds = %89, %51
  %91 = load ptr, ptr %5, align 8
  %92 = load ptr, ptr %6, align 8
  call void @X11_Xinput2GrabTouch(ptr noundef %91, ptr noundef %92)
  %93 = load ptr, ptr @X11_XRaiseWindow, align 8
  %94 = load ptr, ptr %9, align 8
  %95 = load ptr, ptr %8, align 8
  %96 = getelementptr inbounds nuw %struct.SDL_WindowData, ptr %95, i32 0, i32 1
  %97 = load i64, ptr %96, align 8
  %98 = call i32 %93(ptr noundef %94, i64 noundef %97)
  br label %105

99:                                               ; preds = %22
  %100 = load ptr, ptr @X11_XUngrabPointer, align 8
  %101 = load ptr, ptr %9, align 8
  %102 = call i32 %100(ptr noundef %101, i64 noundef 0)
  %103 = load ptr, ptr %5, align 8
  %104 = load ptr, ptr %6, align 8
  call void @X11_Xinput2UngrabTouch(ptr noundef %103, ptr noundef %104)
  br label %105

105:                                              ; preds = %99, %90
  %106 = load ptr, ptr @X11_XSync, align 8
  %107 = load ptr, ptr %9, align 8
  %108 = call i32 %106(ptr noundef %107, i32 noundef 0)
  %109 = load ptr, ptr %8, align 8
  %110 = getelementptr inbounds nuw %struct.SDL_WindowData, ptr %109, i32 0, i32 24
  %111 = load ptr, ptr %110, align 8
  %112 = getelementptr inbounds nuw %struct.SDL_VideoData, ptr %111, i32 0, i32 20
  %113 = load i8, ptr %112, align 2, !range !5, !noundef !6
  %114 = trunc i8 %113 to i1
  br i1 %114, label %116, label %115

115:                                              ; preds = %105
  store i1 true, ptr %4, align 1
  store i32 1, ptr %10, align 4
  br label %118

116:                                              ; preds = %105
  %117 = call zeroext i1 (ptr, ...) @SDL_SetError_REAL(ptr noundef @.str.33)
  store i1 %117, ptr %4, align 1
  store i32 1, ptr %10, align 4
  br label %118

118:                                              ; preds = %116, %115, %38, %20
  call void @llvm.lifetime.end.p0(i64 8, ptr %9) #7
  call void @llvm.lifetime.end.p0(i64 8, ptr %8) #7
  %119 = load i1, ptr %4, align 1
  ret i1 %119
}