; Function Attrs: nounwind uwtable
define hidden zeroext i1 @X11_SetWindowMouseGrab(ptr noundef %0, ptr noundef %1, i1 noundef zeroext %2) local_unnamed_addr #0 {
  %4 = getelementptr inbounds nuw i8, ptr %1, i64 392
  %5 = load ptr, ptr %4, align 8
  %.not = icmp eq ptr %5, null
  br i1 %.not, label %.sink.split, label %6

6:                                                ; preds = %3
  %7 = getelementptr inbounds nuw i8, ptr %5, i64 118
  store i8 0, ptr %7, align 2
  %8 = getelementptr inbounds nuw i8, ptr %5, i64 336
  %9 = load ptr, ptr %8, align 8
  %10 = load ptr, ptr %9, align 8
  br i1 %2, label %11, label %45

11:                                               ; preds = %6
  %12 = getelementptr inbounds nuw i8, ptr %1, i64 72
  %13 = load i64, ptr %12, align 8
  %14 = and i64 %13, 8
  %.not32 = icmp eq i64 %14, 0
  br i1 %.not32, label %15, label %56

15:                                               ; preds = %11
  %16 = getelementptr inbounds nuw i8, ptr %5, i64 116
  %17 = load i8, ptr %16, align 4, !range !5, !noundef !6
  %18 = trunc nuw i8 %17 to i1
  br i1 %18, label %19, label %24

19:                                               ; preds = %15
  %20 = tail call i32 @SDL_GetMouseState_REAL(ptr noundef null, ptr noundef null) #12
  %.not33 = icmp eq i32 %20, 0
  br i1 %.not33, label %24, label %21

21:                                               ; preds = %19
  %22 = load ptr, ptr @X11_XUngrabPointer, align 8
  %23 = tail call i32 %22(ptr noundef %10, i64 noundef 0) #12
  br label %24

24:                                               ; preds = %21, %19, %15
  %25 = load ptr, ptr %8, align 8
  %26 = getelementptr inbounds nuw i8, ptr %25, i64 1642
  %27 = load i8, ptr %26, align 2, !range !5, !noundef !6
  %28 = trunc nuw i8 %27 to i1
  br i1 %28, label %40, label %.preheader

.preheader:                                       ; preds = %24
  %29 = getelementptr inbounds nuw i8, ptr %5, i64 8
  br label %30

30:                                               ; preds = %.preheader, %35
  %.02738 = phi i32 [ 0, %.preheader ], [ %36, %35 ]
  %31 = load ptr, ptr @X11_XGrabPointer, align 8
  %32 = load i64, ptr %29, align 8
  %33 = tail call i32 %31(ptr noundef %10, i64 noundef %32, i32 noundef 0, i32 noundef 2097228, i32 noundef 1, i32 noundef 1, i64 noundef %32, i64 noundef 0, i64 noundef 0) #12
  %34 = icmp eq i32 %33, 0
  br i1 %34, label %.thread, label %35

.thread:                                          ; preds = %30
  store i8 1, ptr %7, align 2
  br label %40

35:                                               ; preds = %30
  tail call void @SDL_Delay_REAL(i32 noundef 50) #12
  %36 = add nuw nsw i32 %.02738, 1
  %exitcond.not = icmp eq i32 %36, 100
  br i1 %exitcond.not, label %37, label %30, !llvm.loop !19

37:                                               ; preds = %35
  %38 = load ptr, ptr %8, align 8
  %39 = getelementptr inbounds nuw i8, ptr %38, i64 1642
  store i8 1, ptr %39, align 2
  br label %40

40:                                               ; preds = %.thread, %37, %24
  tail call void @X11_Xinput2GrabTouch(ptr noundef %0, ptr noundef %1) #12
  %41 = load ptr, ptr @X11_XRaiseWindow, align 8
  %42 = getelementptr inbounds nuw i8, ptr %5, i64 8
  %43 = load i64, ptr %42, align 8
  %44 = tail call i32 %41(ptr noundef %10, i64 noundef %43) #12
  br label %48

45:                                               ; preds = %6
  %46 = load ptr, ptr @X11_XUngrabPointer, align 8
  %47 = tail call i32 %46(ptr noundef %10, i64 noundef 0) #12
  tail call void @X11_Xinput2UngrabTouch(ptr noundef %0, ptr noundef nonnull %1) #12
  br label %48

48:                                               ; preds = %45, %40
  %49 = load ptr, ptr @X11_XSync, align 8
  %50 = tail call i32 %49(ptr noundef %10, i32 noundef 0) #12
  %51 = load ptr, ptr %8, align 8
  %52 = getelementptr inbounds nuw i8, ptr %51, i64 1642
  %53 = load i8, ptr %52, align 2, !range !5, !noundef !6
  %54 = trunc nuw i8 %53 to i1
  br i1 %54, label %.sink.split, label %56

.sink.split:                                      ; preds = %48, %3
  %.str.33.sink = phi ptr [ @.str.32, %3 ], [ @.str.33, %48 ]
  %55 = tail call zeroext i1 (ptr, ...) @SDL_SetError_REAL(ptr noundef nonnull %.str.33.sink) #12
  br label %56

56:                                               ; preds = %.sink.split, %48, %11
  %.028 = phi i1 [ true, %11 ], [ true, %48 ], [ %55, %.sink.split ]
  ret i1 %.028
}